target datalayout = "e-m:e-p270:32:32-p271:32:32-p272:64:64-i64:64-i128:128-f80:128-n8:16:32:64-S128"
target triple = "x86_64-unknown-linux-gnu"

; Function Attrs: mustprogress uwtable
define hidden void @_ZN9expr_rand4walkEj(ptr noundef nonnull align 8 dereferenceable(56) %this, i32 noundef %n) #4 align 2 {
entry:
  %this.addr = alloca ptr, align 8
  %n.addr = alloca i32, align 4
  %i = alloca i32, align 4
  store ptr %this, ptr %this.addr, align 8
  store i32 %n, ptr %n.addr, align 4
  %this1 = load ptr, ptr %this.addr, align 8
  store i32 0, ptr %i, align 4
  br label %for.cond

for.cond:                                         ; preds = %for.inc, %entry
  %0 = load i32, ptr %i, align 4
  %1 = load i32, ptr %n.addr, align 4
  %cmp = icmp ult i32 %0, %1
  br i1 %cmp, label %for.body, label %for.end

for.body:                                         ; preds = %for.cond
  call void @_ZN9expr_rand4walkEv(ptr noundef nonnull align 8 dereferenceable(56) %this1)
  br label %for.inc

for.inc:                                          ; preds = %for.body
  %2 = load i32, ptr %i, align 4
  %inc = add i32 %2, 1
  store i32 %inc, ptr %i, align 4
  br label %for.cond, !llvm.loop !6

for.end:                                          ; preds = %for.cond
  ret void
}