; Function Attrs: mustprogress uwtable
define hidden void @_ZN9expr_rand4walkEj(ptr noundef nonnull align 8 dereferenceable(56) %this, i32 noundef %n) local_unnamed_addr #3 align 2 {
entry:
  %cmp2.not = icmp eq i32 %n, 0
  br i1 %cmp2.not, label %for.end, label %for.body

for.body:                                         ; preds = %entry, %for.body
  %i.03 = phi i32 [ %inc, %for.body ], [ 0, %entry ]
  tail call void @_ZN9expr_rand4walkEv(ptr noundef nonnull align 8 dereferenceable(56) %this)
  %inc = add nuw i32 %i.03, 1
  %exitcond.not = icmp eq i32 %inc, %n
  br i1 %exitcond.not, label %for.end, label %for.body, !llvm.loop !10

for.end:                                          ; preds = %for.body, %entry
  ret void
}